target datalayout = "e-m:e-p270:32:32-p271:32:32-p272:64:64-i64:64-i128:128-f80:128-n8:16:32:64-S128"
target triple = "x86_64-pc-linux-gnu"

%"struct.Luau::CodeGen::IrOp" = type { i32 }

; Function Attrs: mustprogress uwtable
define dso_local void @_ZN4Luau7CodeGen21translateInstBinaryRKERNS0_9IrBuilderEPKji3TMS(ptr noundef nonnull align 8 dereferenceable(752) %0, ptr noundef %1, i32 noundef %2, i32 noundef %3) #0 {
  %5 = alloca ptr, align 8
  %6 = alloca ptr, align 8
  %7 = alloca i32, align 4
  %8 = alloca i32, align 4
  %9 = alloca %"struct.Luau::CodeGen::IrOp", align 4
  %10 = alloca %"struct.Luau::CodeGen::IrOp", align 4
  store ptr %0, ptr %5, align 8, !tbaa !4
  store ptr %1, ptr %6, align 8, !tbaa !9
  store i32 %2, ptr %7, align 4, !tbaa !11
  store i32 %3, ptr %8, align 4, !tbaa !118
  %11 = load ptr, ptr %5, align 8, !tbaa !4
  %12 = load ptr, ptr %6, align 8, !tbaa !9
  %13 = load i32, ptr %12, align 4, !tbaa !11
  %14 = lshr i32 %13, 8
  %15 = and i32 %14, 255
  %16 = load ptr, ptr %6, align 8, !tbaa !9
  %17 = load i32, ptr %16, align 4, !tbaa !11
  %18 = lshr i32 %17, 24
  %19 = and i32 %18, 255
  %20 = load ptr, ptr %5, align 8, !tbaa !4
  %21 = load ptr, ptr %6, align 8, !tbaa !9
  %22 = load i32, ptr %21, align 4, !tbaa !11
  %23 = lshr i32 %22, 16
  %24 = and i32 %23, 255
  %25 = call i32 @_ZN4Luau7CodeGen9IrBuilder7vmConstEj(ptr noundef nonnull align 8 dereferenceable(752) %20, i32 noundef %24)
  %26 = getelementptr inbounds nuw %"struct.Luau::CodeGen::IrOp", ptr %9, i32 0, i32 0
  store i32 %25, ptr %26, align 4
  %27 = load ptr, ptr %5, align 8, !tbaa !4
  %28 = load ptr, ptr %6, align 8, !tbaa !9
  %29 = load i32, ptr %28, align 4, !tbaa !11
  %30 = lshr i32 %29, 24
  %31 = and i32 %30, 255
  %32 = trunc i32 %31 to i8
  %33 = call i32 @_ZN4Luau7CodeGen9IrBuilder5vmRegEh(ptr noundef nonnull align 8 dereferenceable(752) %27, i8 noundef zeroext %32)
  %34 = getelementptr inbounds nuw %"struct.Luau::CodeGen::IrOp", ptr %10, i32 0, i32 0
  store i32 %33, ptr %34, align 4
  %35 = load i32, ptr %7, align 4, !tbaa !11
  %36 = load i32, ptr %8, align 4, !tbaa !118
  %37 = getelementptr inbounds nuw %"struct.Luau::CodeGen::IrOp", ptr %9, i32 0, i32 0
  %38 = load i32, ptr %37, align 4
  %39 = getelementptr inbounds nuw %"struct.Luau::CodeGen::IrOp", ptr %10, i32 0, i32 0
  %40 = load i32, ptr %39, align 4
  call void @_ZN4Luau7CodeGenL26translateInstBinaryNumericERNS0_9IrBuilderEiiiNS0_4IrOpES3_i3TMS(ptr noundef nonnull align 8 dereferenceable(752) %11, i32 noundef %15, i32 noundef -1, i32 noundef %19, i32 %38, i32 %40, i32 noundef %35, i32 noundef %36)
  ret void
}